target datalayout = "e-m:e-p270:32:32-p271:32:32-p272:64:64-i64:64-i128:128-f80:128-n8:16:32:64-S128"
target triple = "x86_64-unknown-linux-gnu"

%"struct.node::AssertionInfo" = type { ptr, ptr, ptr }
%"class.v8::IndirectHandleBase" = type { ptr }
%"class.node::cares_wrap::ChannelWrap" = type { %"class.node::AsyncWrap", ptr, ptr, i8, i8, i8, i32, i32, i32, %"class.std::unordered_set" }
%"class.node::AsyncWrap" = type { %"class.node::BaseObject", i32, i8, double, double }
%"class.node::BaseObject" = type { %"class.node::MemoryRetainer", %"class.v8::Global", ptr, ptr }
%"class.node::MemoryRetainer" = type { ptr }
%"class.v8::Global" = type { %"class.v8::PersistentBase" }
%"class.v8::PersistentBase" = type { %"class.v8::IndirectHandleBase" }
%"class.std::unordered_set" = type { %"class.std::_Hashtable" }
%"class.std::_Hashtable" = type { ptr, i64, %"struct.std::__detail::_Hash_node_base", i64, %"struct.std::__detail::_Prime_rehash_policy", ptr }
%"struct.std::__detail::_Hash_node_base" = type { ptr }
%"struct.std::__detail::_Prime_rehash_policy" = type { float, i64 }

@_ZZN4node10cares_wrap11ChannelWrap24ModifyActivityQueryCountEiE4args = internal constant %"struct.node::AssertionInfo" { ptr @.str.18, ptr @.str.19, ptr @.str.20 }, align 8

; Function Attrs: mustprogress nounwind uwtable
define dso_local void @_ZN4node10cares_wrap11ChannelWrap24ModifyActivityQueryCountEi(ptr noundef nonnull align 8 dereferenceable(144) %this, i32 noundef %count) #4 align 2 {
entry:
  %this.addr = alloca ptr, align 8
  %count.addr = alloca i32, align 4
  store ptr %this, ptr %this.addr, align 8
  store i32 %count, ptr %count.addr, align 4
  %this1 = load ptr, ptr %this.addr, align 8
  %0 = load i32, ptr %count.addr, align 4
  %active_query_count_ = getelementptr inbounds %"class.node::cares_wrap::ChannelWrap", ptr %this1, i32 0, i32 8
  %1 = load i32, ptr %active_query_count_, align 4
  %add = add nsw i32 %1, %0
  store i32 %add, ptr %active_query_count_, align 4
  br label %do.body

do.body:                                          ; preds = %entry
  %active_query_count_2 = getelementptr inbounds %"class.node::cares_wrap::ChannelWrap", ptr %this1, i32 0, i32 8
  %2 = load i32, ptr %active_query_count_2, align 4
  %cmp = icmp sge i32 %2, 0
  %lnot = xor i1 %cmp, true
  %lnot3 = xor i1 %lnot, true
  %lnot4 = xor i1 %lnot3, true
  br i1 %lnot4, label %if.then, label %if.end

if.then:                                          ; preds = %do.body
  br label %do.body5

do.body5:                                         ; preds = %if.then
  call void @_ZN4node6AssertERKNS_13AssertionInfoE(ptr noundef nonnull align 8 dereferenceable(24) @_ZZN4node10cares_wrap11ChannelWrap24ModifyActivityQueryCountEiE4args)
  call void @abort() #16
  unreachable

do.end:                                           ; No predecessors!
  br label %if.end

if.end:                                           ; preds = %do.end, %do.body
  br label %do.end6

do.end6:                                          ; preds = %if.end
  ret void
}