; Function Attrs: mustprogress nounwind uwtable
define dso_local void @_ZN4node10cares_wrap11ChannelWrap24ModifyActivityQueryCountEi(ptr nocapture noundef nonnull align 8 dereferenceable(144) %this, i32 noundef %count) local_unnamed_addr #3 align 2 {
entry:
  %active_query_count_ = getelementptr inbounds i8, ptr %this, i64 84
  %0 = load i32, ptr %active_query_count_, align 4
  %add = add nsw i32 %0, %count
  store i32 %add, ptr %active_query_count_, align 4
  %cmp = icmp slt i32 %add, 0
  br i1 %cmp, label %do.body5, label %do.end6

do.body5:                                         ; preds = %entry
  tail call void @_ZN4node6AssertERKNS_13AssertionInfoE(ptr noundef nonnull align 8 dereferenceable(24) @_ZZN4node10cares_wrap11ChannelWrap24ModifyActivityQueryCountEiE4args) #20
  tail call void @abort() #23
  unreachable

do.end6:                                          ; preds = %entry
  ret void
}